; Function Attrs: mustprogress uwtable
define void @_ZN32pxrInternal_v0_24__pxrReserved__10TsKeyFrame19_InitializeKnotTypeENS_10TsKnotTypeE(ptr noundef nonnull align 8 dereferenceable(72) %0, i32 noundef %1) local_unnamed_addr #0 align 2 {
  %3 = load ptr, ptr %0, align 8
  %4 = getelementptr inbounds i8, ptr %3, i64 152
  %5 = load ptr, ptr %4, align 8
  %6 = tail call noundef zeroext i1 %5(ptr noundef nonnull align 8 dereferenceable(16) %0)
  %7 = icmp eq i32 %1, 0
  %or.cond.not = or i1 %7, %6
  br i1 %or.cond.not, label %8, label %19

8:                                                ; preds = %2
  %9 = load ptr, ptr %0, align 8
  %10 = getelementptr inbounds i8, ptr %9, i64 152
  %11 = load ptr, ptr %10, align 8
  %12 = tail call noundef zeroext i1 %11(ptr noundef nonnull align 8 dereferenceable(16) %0)
  br i1 %12, label %13, label %19

13:                                               ; preds = %8
  %14 = load ptr, ptr %0, align 8
  %15 = getelementptr inbounds i8, ptr %14, i64 192
  %16 = load ptr, ptr %15, align 8
  %17 = tail call noundef zeroext i1 %16(ptr noundef nonnull align 8 dereferenceable(16) %0)
  %18 = icmp ne i32 %1, 2
  %or.cond4.not = or i1 %18, %17
  %spec.store.select = select i1 %or.cond4.not, i32 %1, i32 1
  br label %19

19:                                               ; preds = %2, %13, %8
  %.0 = phi i32 [ %spec.store.select, %13 ], [ %1, %8 ], [ 0, %2 ]
  %20 = load ptr, ptr %0, align 8
  %21 = getelementptr inbounds i8, ptr %20, i64 64
  %22 = load ptr, ptr %21, align 8
  tail call void %22(ptr noundef nonnull align 8 dereferenceable(16) %0, i32 noundef %.0)
  ret void
}